target datalayout = "e-m:e-p270:32:32-p271:32:32-p272:64:64-i64:64-i128:128-f80:128-n8:16:32:64-S128"
target triple = "x86_64-pc-linux-gnu"

%struct.AVFormatContext = type { ptr, ptr, ptr, ptr, ptr, i32, i32, ptr, i32, ptr, i32, ptr, ptr, i64, i64, i64, i32, i32, i32, i64, i64, ptr, i32, i32, ptr, i32, i32, i32, i32, ptr, i64, i32, i32, %struct.AVIOInterruptCB, i32, i32, i32, i32, i64, i32, i32, i32, i32, i32, i32, i32, i32, i32, i32, i32, i32, i64, i32, i32, i32, i32, i32, ptr, ptr, ptr, ptr, i32, ptr, ptr, ptr, ptr, i32, ptr, ptr, i64, ptr, ptr, ptr, i64 }
%struct.AVIOInterruptCB = type { ptr, ptr }
%struct.AVStream = type { ptr, i32, i32, ptr, ptr, %struct.AVRational, i64, i64, i64, i32, i32, %struct.AVRational, ptr, %struct.AVRational, %struct.AVPacket, i32, %struct.AVRational, i32 }
%struct.AVPacket = type { ptr, i64, i64, ptr, i32, i32, i32, ptr, i32, i64, i64, ptr, ptr, %struct.AVRational }
%struct.AVRational = type { i32, i32 }
%struct.AVCodecParameters = type { i32, i32, i32, ptr, i32, ptr, i32, i32, i64, i32, i32, i32, i32, i32, i32, %struct.AVRational, %struct.AVRational, i32, i32, i32, i32, i32, i32, i32, %struct.AVChannelLayout, i32, i32, i32, i32, i32, i32 }
%struct.AVChannelLayout = type { i32, i32, %union.anon, ptr }
%union.anon = type { i64 }

@.str.2 = private unnamed_addr constant [5 x i8] c"DKIF\00", align 1
@.str.3 = private unnamed_addr constant [5 x i8] c"VP90\00", align 1
@.str.4 = private unnamed_addr constant [5 x i8] c"VP80\00", align 1
@.str.5 = private unnamed_addr constant [5 x i8] c"AV01\00", align 1

; Function Attrs: nounwind uwtable
define internal i32 @ivf_write_header(ptr noundef %0) #0 {
  %2 = alloca ptr, align 8
  %3 = alloca ptr, align 8
  %4 = alloca ptr, align 8
  store ptr %0, ptr %2, align 8, !tbaa !4
  call void @llvm.lifetime.start.p0(i64 8, ptr %3) #4
  %5 = load ptr, ptr %2, align 8, !tbaa !4
  %6 = getelementptr inbounds nuw %struct.AVFormatContext, ptr %5, i32 0, i32 7
  %7 = load ptr, ptr %6, align 8, !tbaa !9
  %8 = getelementptr inbounds ptr, ptr %7, i64 0
  %9 = load ptr, ptr %8, align 8, !tbaa !26
  %10 = getelementptr inbounds nuw %struct.AVStream, ptr %9, i32 0, i32 3
  %11 = load ptr, ptr %10, align 8, !tbaa !28
  store ptr %11, ptr %3, align 8, !tbaa !35
  call void @llvm.lifetime.start.p0(i64 8, ptr %4) #4
  %12 = load ptr, ptr %2, align 8, !tbaa !4
  %13 = getelementptr inbounds nuw %struct.AVFormatContext, ptr %12, i32 0, i32 4
  %14 = load ptr, ptr %13, align 8, !tbaa !36
  store ptr %14, ptr %4, align 8, !tbaa !37
  %15 = load ptr, ptr %4, align 8, !tbaa !37
  call void @avio_write(ptr noundef %15, ptr noundef @.str.2, i32 noundef 4)
  %16 = load ptr, ptr %4, align 8, !tbaa !37
  call void @avio_wl16(ptr noundef %16, i32 noundef 0)
  %17 = load ptr, ptr %4, align 8, !tbaa !37
  call void @avio_wl16(ptr noundef %17, i32 noundef 32)
  %18 = load ptr, ptr %4, align 8, !tbaa !37
  %19 = load ptr, ptr %3, align 8, !tbaa !35
  %20 = getelementptr inbounds nuw %struct.AVCodecParameters, ptr %19, i32 0, i32 1
  %21 = load i32, ptr %20, align 4, !tbaa !38
  %22 = icmp eq i32 %21, 167
  br i1 %22, label %23, label %25

23:                                               ; preds = %1
  %24 = load i32, ptr @.str.3, align 1, !tbaa !41
  br label %36

25:                                               ; preds = %1
  %26 = load ptr, ptr %3, align 8, !tbaa !35
  %27 = getelementptr inbounds nuw %struct.AVCodecParameters, ptr %26, i32 0, i32 1
  %28 = load i32, ptr %27, align 4, !tbaa !38
  %29 = icmp eq i32 %28, 139
  br i1 %29, label %30, label %32

30:                                               ; preds = %25
  %31 = load i32, ptr @.str.4, align 1, !tbaa !41
  br label %34

32:                                               ; preds = %25
  %33 = load i32, ptr @.str.5, align 1, !tbaa !41
  br label %34

34:                                               ; preds = %32, %30
  %35 = phi i32 [ %31, %30 ], [ %33, %32 ]
  br label %36

36:                                               ; preds = %34, %23
  %37 = phi i32 [ %24, %23 ], [ %35, %34 ]
  call void @avio_wl32(ptr noundef %18, i32 noundef %37)
  %38 = load ptr, ptr %4, align 8, !tbaa !37
  %39 = load ptr, ptr %3, align 8, !tbaa !35
  %40 = getelementptr inbounds nuw %struct.AVCodecParameters, ptr %39, i32 0, i32 13
  %41 = load i32, ptr %40, align 8, !tbaa !42
  call void @avio_wl16(ptr noundef %38, i32 noundef %41)
  %42 = load ptr, ptr %4, align 8, !tbaa !37
  %43 = load ptr, ptr %3, align 8, !tbaa !35
  %44 = getelementptr inbounds nuw %struct.AVCodecParameters, ptr %43, i32 0, i32 14
  %45 = load i32, ptr %44, align 4, !tbaa !43
  call void @avio_wl16(ptr noundef %42, i32 noundef %45)
  %46 = load ptr, ptr %4, align 8, !tbaa !37
  %47 = load ptr, ptr %2, align 8, !tbaa !4
  %48 = getelementptr inbounds nuw %struct.AVFormatContext, ptr %47, i32 0, i32 7
  %49 = load ptr, ptr %48, align 8, !tbaa !9
  %50 = getelementptr inbounds ptr, ptr %49, i64 0
  %51 = load ptr, ptr %50, align 8, !tbaa !26
  %52 = getelementptr inbounds nuw %struct.AVStream, ptr %51, i32 0, i32 5
  %53 = getelementptr inbounds nuw %struct.AVRational, ptr %52, i32 0, i32 1
  %54 = load i32, ptr %53, align 4, !tbaa !44
  call void @avio_wl32(ptr noundef %46, i32 noundef %54)
  %55 = load ptr, ptr %4, align 8, !tbaa !37
  %56 = load ptr, ptr %2, align 8, !tbaa !4
  %57 = getelementptr inbounds nuw %struct.AVFormatContext, ptr %56, i32 0, i32 7
  %58 = load ptr, ptr %57, align 8, !tbaa !9
  %59 = getelementptr inbounds ptr, ptr %58, i64 0
  %60 = load ptr, ptr %59, align 8, !tbaa !26
  %61 = getelementptr inbounds nuw %struct.AVStream, ptr %60, i32 0, i32 5
  %62 = getelementptr inbounds nuw %struct.AVRational, ptr %61, i32 0, i32 0
  %63 = load i32, ptr %62, align 8, !tbaa !45
  call void @avio_wl32(ptr noundef %55, i32 noundef %63)
  %64 = load ptr, ptr %4, align 8, !tbaa !37
  call void @avio_wl32(ptr noundef %64, i32 noundef -1)
  %65 = load ptr, ptr %4, align 8, !tbaa !37
  call void @avio_wl32(ptr noundef %65, i32 noundef 0)
  call void @llvm.lifetime.end.p0(i64 8, ptr %4) #4
  call void @llvm.lifetime.end.p0(i64 8, ptr %3) #4
  ret i32 0
}