; Function Attrs: nounwind uwtable
define internal noundef i32 @ivf_write_header(ptr noundef readonly captures(none) %0) #0 {
  %2 = getelementptr inbounds nuw i8, ptr %0, i64 48
  %3 = load ptr, ptr %2, align 8, !tbaa !4
  %4 = load ptr, ptr %3, align 8, !tbaa !24
  %5 = getelementptr inbounds nuw i8, ptr %4, i64 16
  %6 = load ptr, ptr %5, align 8, !tbaa !26
  %7 = getelementptr inbounds nuw i8, ptr %0, i64 32
  %8 = load ptr, ptr %7, align 8, !tbaa !33
  tail call void @avio_write(ptr noundef %8, ptr noundef nonnull @.str.2, i32 noundef 4) #2
  tail call void @avio_wl16(ptr noundef %8, i32 noundef 0) #2
  tail call void @avio_wl16(ptr noundef %8, i32 noundef 32) #2
  %9 = getelementptr inbounds nuw i8, ptr %6, i64 4
  %10 = load i32, ptr %9, align 4, !tbaa !34
  %11 = icmp eq i32 %10, 167
  %12 = icmp eq i32 %10, 139
  %13 = select i1 %12, i32 808996950, i32 825251393
  %14 = select i1 %11, i32 809062486, i32 %13
  tail call void @avio_wl32(ptr noundef %8, i32 noundef %14) #2
  %15 = getelementptr inbounds nuw i8, ptr %6, i64 72
  %16 = load i32, ptr %15, align 8, !tbaa !37
  tail call void @avio_wl16(ptr noundef %8, i32 noundef %16) #2
  %17 = getelementptr inbounds nuw i8, ptr %6, i64 76
  %18 = load i32, ptr %17, align 4, !tbaa !38
  tail call void @avio_wl16(ptr noundef %8, i32 noundef %18) #2
  %19 = load ptr, ptr %2, align 8, !tbaa !4
  %20 = load ptr, ptr %19, align 8, !tbaa !24
  %21 = getelementptr inbounds nuw i8, ptr %20, i64 36
  %22 = load i32, ptr %21, align 4, !tbaa !39
  tail call void @avio_wl32(ptr noundef %8, i32 noundef %22) #2
  %23 = load ptr, ptr %2, align 8, !tbaa !4
  %24 = load ptr, ptr %23, align 8, !tbaa !24
  %25 = getelementptr inbounds nuw i8, ptr %24, i64 32
  %26 = load i32, ptr %25, align 8, !tbaa !40
  tail call void @avio_wl32(ptr noundef %8, i32 noundef %26) #2
  tail call void @avio_wl32(ptr noundef %8, i32 noundef -1) #2
  tail call void @avio_wl32(ptr noundef %8, i32 noundef 0) #2
  ret i32 0
}